	.file	"ackermann.c"
	.text
	.globl	ackermann
	.type	ackermann, @function
ackermann:
.LFB0:
	.cfi_startproc
	endbr64
	pushq	%rbp
	.cfi_def_cfa_offset 16
	.cfi_offset 6, -16
	movq	%rsp, %rbp
	.cfi_def_cfa_register 6
	subq	$32, %rsp
	movl	%edi, -20(%rbp)
	movl	%esi, -24(%rbp)
	cmpl	$0, -20(%rbp)
	jne	.L2
	movl	-24(%rbp), %eax
	addl	$1, %eax
	movl	%eax, -4(%rbp)
	jmp	.L3
.L2:
	cmpl	$0, -24(%rbp)
	jne	.L4
	movl	-20(%rbp), %eax
	subl	$1, %eax
	movl	$1, %esi
	movl	%eax, %edi
	call	ackermann
	movl	%eax, -4(%rbp)
	jmp	.L3
.L4:
	movl	-24(%rbp), %eax
	leal	-1(%rax), %edx
	movl	-20(%rbp), %eax
	movl	%edx, %esi
	movl	%eax, %edi
	call	ackermann
	movl	%eax, %edx
	movl	-20(%rbp), %eax
	subl	$1, %eax
	movl	%edx, %esi
	movl	%eax, %edi
	call	ackermann
	movl	%eax, -4(%rbp)
.L3:
	nop
	leave
	.cfi_def_cfa 7, 8
	ret
	.cfi_endproc
.LFE0:
	.size	ackermann, .-ackermann
	.section	.rodata
.LC0:
	.string	"Enter a number: "
.LC1:
	.string	"%d"
.LC2:
	.string	"Enter another number: "
.LC3:
	.string	"Ackermann: %d\n"
	.text
	.globl	main
	.type	main, @function
main:
.LFB1:
	.cfi_startproc
	endbr64
	pushq	%rbp
	.cfi_def_cfa_offset 16
	.cfi_offset 6, -16
	movq	%rsp, %rbp
	.cfi_def_cfa_register 6
	subq	$16, %rsp
	movq	%fs:40, %rax
	movq	%rax, -8(%rbp)
	xorl	%eax, %eax
.L6:
	leaq	.LC0(%rip), %rdi
	movl	$0, %eax
	call	printf@PLT
	leaq	-16(%rbp), %rax
	movq	%rax, %rsi
	leaq	.LC1(%rip), %rdi
	movl	$0, %eax
	call	__isoc99_scanf@PLT
	leaq	.LC2(%rip), %rdi
	movl	$0, %eax
	call	printf@PLT
	leaq	-12(%rbp), %rax
	movq	%rax, %rsi
	leaq	.LC1(%rip), %rdi
	movl	$0, %eax
	call	__isoc99_scanf@PLT
	movl	-12(%rbp), %edx
	movl	-16(%rbp), %eax
	movl	%edx, %esi
	movl	%eax, %edi
	call	ackermann
	movl	%eax, %esi
	leaq	.LC3(%rip), %rdi
	movl	$0, %eax
	call	printf@PLT
	jmp	.L6
	.cfi_endproc
.LFE1:
	.size	main, .-main
	.ident	"GCC: (Ubuntu 9.4.0-1ubuntu1~20.04.1) 9.4.0"
	.section	.note.GNU-stack,"",@progbits
	.section	.note.gnu.property,"a"
	.align 8
	.long	 1f - 0f
	.long	 4f - 1f
	.long	 5
0:
	.string	 "GNU"
1:
	.align 8
	.long	 0xc0000002
	.long	 3f - 2f
2:
	.long	 0x3
3:
	.align 8
4:
